; Function Attrs: nounwind sspstrong uwtable
define dso_local ptr @rb_mod_const_at(i64 noundef %0, ptr noundef %1) local_unnamed_addr #0 {
  %3 = alloca i32, align 4
  %.not = icmp eq ptr %1, null
  br i1 %.not, label %4, label %6

4:                                                ; preds = %2
  %5 = tail call ptr @rb_st_init_numtable() #27
  br label %6

6:                                                ; preds = %4, %2
  %.0 = phi ptr [ %1, %2 ], [ %5, %4 ]
  %7 = inttoptr i64 %0 to ptr
  %8 = getelementptr inbounds nuw i8, ptr %7, i64 40
  %9 = load ptr, ptr %8, align 8, !tbaa !142
  %.not6 = icmp eq ptr %9, null
  br i1 %.not6, label %16, label %10

10:                                               ; preds = %6
  call void @llvm.lifetime.start.p0(i64 4, ptr nonnull %3) #27
  %11 = load ptr, ptr @ruby_single_main_ractor, align 8, !tbaa !68
  %.not.i.i = icmp eq ptr %11, null
  br i1 %.not.i.i, label %12, label %rb_vm_lock_enter.exit

12:                                               ; preds = %10
  call void @rb_vm_lock_enter_body(ptr noundef nonnull %3) #27
  %.pre = load ptr, ptr %8, align 8, !tbaa !142
  br label %rb_vm_lock_enter.exit

rb_vm_lock_enter.exit:                            ; preds = %10, %12
  %13 = phi ptr [ %9, %10 ], [ %.pre, %12 ]
  call void @rb_id_table_foreach(ptr noundef %13, ptr noundef nonnull @sv_i, ptr noundef %.0) #27
  %14 = load ptr, ptr @ruby_single_main_ractor, align 8, !tbaa !68
  %.not.i.i7 = icmp eq ptr %14, null
  br i1 %.not.i.i7, label %15, label %rb_vm_lock_leave.exit

15:                                               ; preds = %rb_vm_lock_enter.exit
  call void @rb_vm_lock_leave_body(ptr noundef nonnull %3) #27
  br label %rb_vm_lock_leave.exit

rb_vm_lock_leave.exit:                            ; preds = %rb_vm_lock_enter.exit, %15
  call void @llvm.lifetime.end.p0(i64 4, ptr nonnull %3) #27
  br label %16

16:                                               ; preds = %rb_vm_lock_leave.exit, %6
  ret ptr %.0
}